; Function Attrs: nounwind sspstrong uwtable
define noundef ptr @port_str(i64 noundef %0, ptr noundef %1, i64 noundef %2, ptr noundef captures(address_is_null) %3) local_unnamed_addr #0 {
  %5 = alloca i64, align 8
  store i64 %0, ptr %5, align 8, !tbaa !35
  %6 = icmp eq i64 %0, 4
  br i1 %6, label %28, label %7

7:                                                ; preds = %4
  %8 = and i64 %0, 1
  %.not18 = icmp eq i64 %8, 0
  br i1 %.not18, label %15, label %9

9:                                                ; preds = %7
  %10 = ashr i64 %0, 1
  %11 = tail call i32 (ptr, i64, ptr, ...) @ruby_snprintf(ptr noundef %1, i64 noundef %2, ptr noundef nonnull @.str.3, i64 noundef %10) #21
  %.not16 = icmp eq ptr %3, null
  br i1 %.not16, label %28, label %12

12:                                               ; preds = %9
  %13 = load i32, ptr %3, align 4, !tbaa !34
  %14 = or i32 %13, 1024
  store i32 %14, ptr %3, align 4, !tbaa !34
  br label %28

15:                                               ; preds = %7
  %16 = call ptr @rb_string_value_cstr(ptr noundef nonnull %5) #21
  %17 = load i64, ptr %5, align 8, !tbaa !35
  %18 = inttoptr i64 %17 to ptr
  %19 = load i64, ptr %18, align 8, !tbaa !44, !noalias !50
  %20 = and i64 %19, 8192
  %.not.i = icmp eq i64 %20, 0
  %21 = getelementptr inbounds nuw i8, ptr %18, i64 24
  br i1 %.not.i, label %rbimpl_rstring_getmem.exit, label %22

22:                                               ; preds = %15
  %.sroa.5.0.copyload = load ptr, ptr %21, align 8
  br label %rbimpl_rstring_getmem.exit

rbimpl_rstring_getmem.exit:                       ; preds = %15, %22
  %.sroa.5.0 = phi ptr [ %.sroa.5.0.copyload, %22 ], [ %21, %15 ]
  %.sroa.3.0.in = getelementptr inbounds nuw i8, ptr %18, i64 16
  %.sroa.3.0 = load i64, ptr %.sroa.3.0.in, align 8, !tbaa !35
  %.not = icmp ult i64 %.sroa.3.0, %2
  br i1 %.not, label %25, label %23

23:                                               ; preds = %rbimpl_rstring_getmem.exit
  %24 = load i64, ptr @rb_eArgError, align 8, !tbaa !35
  call void (i64, ptr, ...) @rb_raise(i64 noundef %24, ptr noundef nonnull @.str.4, i64 noundef %.sroa.3.0) #23
  unreachable

25:                                               ; preds = %rbimpl_rstring_getmem.exit
  %.not.i17 = icmp eq i64 %.sroa.3.0, 0
  br i1 %.not.i17, label %ruby_nonempty_memcpy.exit, label %26

26:                                               ; preds = %25
  call void @llvm.memcpy.p0.p0.i64(ptr noundef nonnull align 1 %1, ptr noundef nonnull readonly align 1 %.sroa.5.0, i64 noundef range(i64 1, 0) %.sroa.3.0, i1 noundef false) #21
  br label %ruby_nonempty_memcpy.exit

ruby_nonempty_memcpy.exit:                        ; preds = %25, %26
  %27 = getelementptr inbounds nuw i8, ptr %1, i64 %.sroa.3.0
  store i8 0, ptr %27, align 1, !tbaa !49
  br label %28

28:                                               ; preds = %9, %12, %4, %ruby_nonempty_memcpy.exit
  %.0 = phi ptr [ %1, %ruby_nonempty_memcpy.exit ], [ null, %4 ], [ %1, %12 ], [ %1, %9 ]
  ret ptr %.0
}